; Function Attrs: nounwind uwtable
define hidden i32 @magic_compile(ptr noundef %0, ptr noundef %1) local_unnamed_addr #0 {
  %3 = icmp eq ptr %0, null
  br i1 %3, label %6, label %4

4:                                                ; preds = %2
  %5 = tail call i32 @file_apprentice(ptr noundef nonnull %0, ptr noundef %1, i32 noundef 2) #11
  br label %6

6:                                                ; preds = %2, %4
  %.0 = phi i32 [ %5, %4 ], [ -1, %2 ]
  ret i32 %.0
}